(lp1
(lp2
F337
aF5.6055999999999999
aF0.44017000000000001
aF1
aF-0.097477400000000006
aF0.16561500000000001
aF-0.98136100000000004
aF-0.26522299999999999
aF0.15735299999999999
aF-0.95126100000000002
aF337.637
aF-313.81599999999997
aF1789.5899999999999
aF-0.19198999999999999
aF0.14566200000000001
aF0.041518100000000002
aF-0.34947099999999998
aF-0.0200381
aa(lp3
F482
aF8.02468
aF0.40473999999999999
aF1
aF-0.072021799999999997
aF0.160413
aF-0.98441900000000004
aF-0.25631900000000002
aF0.16480800000000001
aF-0.95243800000000001
aF307.13400000000001
aF-283.94900000000001
aF1626.3599999999999
aF-0.185832
aF0.034958099999999999
aF-0.0287865
aF-0.206673
aF-0.0031541400000000002
aa(lp4
F603
aF10.0434
aF0.35476099999999999
aF1
aF-0.065684999999999993
aF0.182365
aF-0.98103399999999996
aF-0.257521
aF0.184507
aF-0.94849300000000003
aF302.16199999999998
aF-277.33499999999998
aF1599.53
aF-0.083568799999999999
aF0.0026144800000000002
aF-0.025107899999999999
aF-0.16844700000000001
aF0.11845600000000001
aa(lp5
F748
aF12.4625
aF0.39795900000000001
aF1
aF-0.071647799999999998
aF0.15182399999999999
aF-0.98580699999999999
aF-0.25365700000000002
aF0.15243999999999999
aF-0.95520700000000003
aF303.18700000000001
aF-284.30599999999998
aF1619.4100000000001
aF-0.24268400000000001
aF0.0508732
aF-0.0115239
aF-0.22854099999999999
aF-0.073357599999999995
aa(lp6
F1013
aF16.883500000000002
aF0.45459100000000002
aF1
aF-0.070339200000000004
aF0.21970000000000001
aF-0.973028
aF-0.24396899999999999
aF0.214643
aF-0.94573099999999999
aF297.62
aF-339.12299999999999
aF1770.6199999999999
aF0.0221166
aF0.11812
aF-0.017012800000000002
aF-0.28434999999999999
aF0.25956699999999999
aa(lp7
F1350
aF22.505800000000001
aF0.516154
aF1
aF-0.0991678
aF0.26099299999999998
aF-0.960233
aF-0.26941799999999999
aF0.24393999999999999
aF-0.93161499999999997
aF302.03899999999999
aF-354.66899999999998
aF1858.74
aF0.201764
aF0.35858200000000001
aF-0.048331800000000001
aF-0.57688899999999999
aF0.50795199999999996
aa(lp8
F1519
aF25.325299999999999
aF0.50046299999999999
aF1
aF-0.107679
aF0.24623400000000001
aF-0.96321000000000001
aF-0.27718999999999999
aF0.230154
aF-0.93284199999999995
aF326.05700000000002
aF-363.15300000000002
aF1893.4200000000001
aF0.11437600000000001
aF0.347105
aF-0.032564599999999999
aF-0.56074599999999997
aF0.40390399999999999
aa(lp9
F1760
aF29.346
aF0.42706699999999997
aF1
aF-0.092673500000000006
aF0.22319
aF-0.97036
aF-0.26738099999999998
aF0.21514
aF-0.93926699999999996
aF320.57299999999998
aF-338.642
aF1874.04
aF0.072175199999999995
aF0.26670700000000003
aF-0.049694299999999997
aF-0.45573200000000003
aF0.33100299999999999
aa(lp10
F1905
aF31.7651
aF0.59928800000000004
aF1
aF-0.088124900000000006
aF0.20882100000000001
aF-0.97397500000000004
aF-0.26044099999999998
aF0.19860800000000001
aF-0.94484100000000004
aF325.65300000000002
aF-346.88200000000001
aF1891.4200000000001
aF-0.041530999999999998
aF0.23319000000000001
aF-0.0076539599999999996
aF-0.418763
aF0.19056200000000001
aa(lp11
F2026
aF33.783799999999999
aF0.26714500000000002
aF1
aF-0.093855400000000005
aF0.16781399999999999
aF-0.98134100000000002
aF-0.26250600000000002
aF0.162462
aF-0.951156
aF301.12400000000002
aF-318.03300000000002
aF1712.8599999999999
aF-0.25766299999999998
aF0.21534800000000001
aF0.037949900000000002
aF-0.42058800000000002
aF-0.0756526
aa(lp12
F2147
aF35.802399999999999
aF0.198792
aF1
aF-0.084017800000000004
aF0.18672
aF-0.97881399999999996
aF-0.24993299999999999
aF0.17688999999999999
aF-0.95196800000000004
aF288.91500000000002
aF-346.65499999999997
aF1769.3399999999999
aF-0.22950200000000001
aF0.221139
aF0.055632599999999997
aF-0.41603699999999999
aF-0.032359100000000002
aa(lp13
F2268
aF37.821100000000001
aF0.273009
aF1
aF-0.081310400000000005
aF0.22992899999999999
aF-0.96980500000000003
aF-0.24618899999999999
aF0.23047999999999999
aF-0.94141900000000001
aF288.65199999999999
aF-315.87099999999998
aF1626.5799999999999
aF0.066235199999999994
aF0.14948400000000001
aF-0.068781300000000004
aF-0.31399199999999999
aF0.32799699999999998
aa(lp14
F2389
aF39.839799999999997
aF0.342306
aF1
aF-0.084074099999999999
aF0.18237800000000001
aF-0.97962700000000003
aF-0.24935199999999999
aF0.175621
aF-0.95235499999999995
aF296.95699999999999
aF-309.447
aF1663.1300000000001
aF-0.18334300000000001
aF0.135159
aF0.025624600000000001
aF-0.32252900000000001
aF0.0106067
aa(lp15
F2510
aF41.858499999999999
aF0.24766199999999999
aF1
aF-0.090929200000000002
aF0.17762700000000001
aF-0.97988799999999998
aF-0.25364900000000001
aF0.16842099999999999
aF-0.95252099999999995
aF304.017
aF-315.589
aF1708.6800000000001
aF-0.222303
aF0.176562
aF0.047657499999999998
aF-0.375531
aF-0.036778199999999997
aa(lp16
F2631
aF43.877200000000002
aF0.62454500000000002
aF1
aF-0.086724499999999996
aF0.23760700000000001
aF-0.96748199999999995
aF-0.25298900000000002
aF0.230823
aF-0.93952999999999998
aF295.50299999999999
aF-363.78199999999998
aF1791.3399999999999
aF0.050707799999999997
aF0.25110500000000002
aF-0.042500400000000001
aF-0.43006499999999998
aF0.321739
aa(lp17
F2824
aF47.097099999999998
aF0.29794900000000002
aF1
aF-0.0795598
aF0.20475299999999999
aF-0.97557499999999997
aF-0.24490300000000001
aF0.19767499999999999
aF-0.94918199999999997
aF301.58300000000003
aF-331.86599999999999
aF1696.1199999999999
aF-0.107644
aF0.120917
aF0.0114646
aF-0.29858600000000002
aF0.111058
aa(lp18
F3209
aF53.520099999999999
aF0.31427899999999998
aF1
aF-0.059628300000000002
aF0.13854
aF-0.98855999999999999
aF-0.23530100000000001
aF0.15266399999999999
aF-0.95985799999999999
aF285.23000000000002
aF-337.68400000000003
aF1696.22
aF-0.35267500000000002
aF0.059944299999999999
aF-0.048479599999999998
aF-0.22015699999999999
aF-0.18351600000000001
aa(lp19
F3330
aF55.538800000000002
aF0.46538099999999999
aF1
aF-0.086878300000000006
aF0.27219399999999999
aF-0.95831200000000005
aF-0.26319100000000001
aF0.25992700000000002
aF-0.92906900000000003
aF305.95999999999998
aF-398.67500000000001
aF1878.9000000000001
aF0.18579200000000001
aF0.29703499999999999
aF-0.066003500000000007
aF-0.492981
aF0.498805
aa(lp20
F3763
aF62.762700000000002
aF0.30454599999999998
aF1
aF-0.082046800000000003
aF0.15167800000000001
aF-0.98501899999999998
aF-0.24786
aF0.164794
aF-0.954677
aF298.71899999999999
aF-354.81
aF1716.8800000000001
aF-0.32908700000000002
aF0.16489799999999999
aF-0.065181500000000003
aF-0.34142899999999998
aF-0.137931
aa(lp21
F3908
aF65.181799999999996
aF0.41286299999999998
aF1
aF-0.056191100000000001
aF0.20450199999999999
aF-0.97725200000000001
aF-0.24359800000000001
aF0.21248700000000001
aF-0.94631399999999999
aF291.67399999999998
aF-337.30399999999997
aF1650.8399999999999
aF-0.093782599999999994
aF0.0046036699999999998
aF-0.059041900000000001
aF-0.14865500000000001
aF0.13919300000000001
aa(lp22
F4125
aF68.802099999999996
aF0.31987500000000002
aF1
aF-0.074583300000000005
aF0.165658
aF-0.98335899999999998
aF-0.24482200000000001
aF0.16996800000000001
aF-0.95455400000000001
aF289.613
aF-345.17599999999999
aF1651.6900000000001
aF-0.31126500000000001
aF0.114325
aF-0.020462999999999999
aF-0.29099999999999998
aF-0.11985
aa(lp23
F4270
aF71.221199999999996
aF0.38033699999999998
aF1
aF-0.072070200000000001
aF0.22903699999999999
aF-0.970746
aF-0.24959500000000001
aF0.226827
aF-0.94140900000000005
aF303.19099999999997
aF-343.90199999999999
aF1689.1400000000001
aF0.0203395
aF0.075136900000000006
aF-0.033702700000000002
aF-0.239343
aF0.27071000000000001
aa(lp24
F4391
aF73.239800000000002
aF0.25443300000000002
aF1
aF-0.053223800000000002
aF0.17010500000000001
aF-0.98398799999999997
aF-0.23369799999999999
aF0.182897
aF-0.95495200000000002
aF284.88400000000001
aF-369.464
aF1693.5799999999999
aF-0.28933599999999998
aF0.025080600000000002
aF-0.052938300000000001
aF-0.17235200000000001
aF-0.087661000000000003
aa(lp25
F4560
aF76.059299999999993
aF0.31020300000000001
aF1
aF-0.077232099999999998
aF0.22889000000000001
aF-0.97038400000000002
aF-0.24710499999999999
aF0.22294600000000001
aF-0.94299200000000005
aF302.57400000000001
aF-346.15899999999999
aF1684.05
aF-0.017835500000000001
aF0.10575
aF-0.0133245
aF-0.27717599999999998
aF0.22941
aa(lp26
F4681
aF78.078000000000003
aF0.27376600000000001
aF1
aF-0.079985899999999999
aF0.16270699999999999
aF-0.98342700000000005
aF-0.25235999999999997
aF0.16606399999999999
aF-0.95327700000000004
aF292.48000000000002
aF-346.41399999999999
aF1686.8699999999999
aF-0.33013900000000002
aF0.165434
aF-0.0055494200000000002
aF-0.35493999999999998
aF-0.142127
aa(lp27
F4850
aF80.897499999999994
aF0.55946600000000002
aF1
aF-0.082517400000000005
aF0.21717400000000001
aF-0.97263900000000003
aF-0.26647100000000001
aF0.220363
aF-0.93831399999999998
aF297.61799999999999
aF-349.5
aF1710.29
aF-0.054462099999999999
aF0.211284
aF-0.054605399999999998
aF-0.38571800000000001
aF0.20183400000000001
aa(lp28
F5091
aF84.918199999999999
aF0.34591300000000003
aF1
aF-0.105021
aF0.22390699999999999
aF-0.96893600000000002
aF-0.27474300000000001
aF0.22425600000000001
aF-0.93500000000000005
aF323.375
aF-350.447
aF1726.3099999999999
aF-0.0021488599999999998
aF0.22265699999999999
aF-0.058148499999999999
aF-0.41423700000000002
aF0.26292900000000002
aa(lp29
F5212
aF86.936899999999994
aF0.31706699999999999
aF1
aF-0.091344400000000006
aF0.21047199999999999
aF-0.97332300000000005
aF-0.259857
aF0.20108000000000001
aF-0.94447899999999996
aF318.221
aF-329.69900000000001
aF1682.5999999999999
aF-0.092770900000000003
aF0.127443
aF0.025265099999999999
aF-0.32126199999999999
aF0.129443
aa(lp30
F5453
aF90.957499999999996
aF0.29443799999999998
aF1
aF-0.085255999999999998
aF0.12814999999999999
aF-0.98808300000000004
aF-0.25049300000000002
aF0.140629
aF-0.95784999999999998
aF297.02100000000002
aF-368.202
aF1687.7
aF-0.495666
aF0.15418799999999999
aF-0.00120557
aF-0.36712499999999998
aF-0.34125699999999998
aa(lp31
F5574
aF92.976200000000006
aF0.25541700000000001
aF1
aF-0.071559300000000006
aF0.16859499999999999
aF-0.98308399999999996
aF-0.243614
aF0.168076
aF-0.95519799999999999
aF284.416
aF-357.41199999999998
aF1643.24
aF-0.35627999999999999
aF0.119044
aF0.023216899999999999
aF-0.30596899999999999
aF-0.170902
aa(lp32
F5719
aF95.395300000000006
aF0.45469599999999999
aF1
aF-0.043142600000000003
aF0.18090700000000001
aF-0.98255400000000004
aF-0.22975899999999999
aF0.193657
aF-0.95378600000000002
aF262.09199999999998
aF-306.416
aF1481.1700000000001
aF-0.26389200000000002
aF-0.050122199999999999
aF-0.070384799999999997
aF-0.082588999999999996
aF-0.050174700000000003
aa(lp33
F5840
aF97.414000000000001
aF0.31731399999999998
aF1
aF-0.083033999999999997
aF0.23166500000000001
aF-0.96924500000000002
aF-0.25321300000000002
aF0.220196
aF-0.94201699999999999
aF306.54500000000002
aF-353.04700000000003
aF1706.95
aF-0.040349700000000002
aF0.143537
aF0.021310699999999998
aF-0.32952700000000001
aF0.204129
aa(lp34
F5985
aF99.833100000000002
aF0.33671699999999999
aF1
aF-0.071863999999999997
aF0.194804
aF-0.97820600000000002
aF-0.24565300000000001
aF0.204482
aF-0.94754499999999997
aF289.858
aF-339.012
aF1637.23
aF-0.15085299999999999
aF0.0936945
aF-0.068804400000000002
aF-0.25023299999999998
aF0.078959100000000004
aa(lp35
F6106
aF101.852
aF0.34228999999999998
aF1
aF-0.084265400000000004
aF0.21044099999999999
aF-0.97396799999999994
aF-0.25158399999999997
aF0.21009
aF-0.94475799999999999
aF310.90100000000001
aF-358.40600000000001
aF1752.1900000000001
aF-0.087935399999999997
aF0.158302
aF-0.033972000000000002
aF-0.331565
aF0.150697
aa(lp36
F6299
aF105.072
aF0.19894000000000001
aF1
aF-0.084594199999999994
aF0.20241600000000001
aF-0.97563900000000003
aF-0.249801
aF0.19305
aF-0.94885799999999998
aF312.57100000000003
aF-367.39400000000001
aF1778.74
aF-0.17369399999999999
aF0.16265199999999999
aF0.035689499999999999
aF-0.35182400000000003
aF0.040275900000000003
aa(lp37
F6420
aF107.09
aF0.38286999999999999
aF1
aF-0.083165600000000006
aF0.21322099999999999
aF-0.97345800000000005
aF-0.251942
aF0.20274900000000001
aF-0.94626500000000002
aF314.15199999999999
aF-365.786
aF1773.1300000000001
aF-0.112194
aF0.14577499999999999
aF0.034655999999999999
aF-0.33333499999999999
aF0.111304
aa(lp38
F6541
aF109.10899999999999
aF0.27498899999999998
aF1
aF0.080637600000000004
aF0.062107999999999997
aF-0.994807
aF-0.12656899999999999
aF0.069670399999999993
aF-0.98950800000000005
aF69.960099999999997
aF-45.615699999999997
aF1260.4300000000001
aF-0.10063900000000001
aF-0.0520423
aF-0.0538685
aF0.0309812
aF-0.0235163
aa(lp39
F6734
aF112.32899999999999
aF0.37929200000000002
aF1
aF-0.071268300000000007
aF0.276115
aF-0.95847899999999997
aF-0.25661299999999998
aF0.274559
aF-0.92669699999999999
aF269.83100000000002
aF-310.36900000000003
aF1523.25
aF0.31704500000000002
aF0.045269499999999997
aF-0.068479300000000007
aF-0.216861
aF0.61498200000000003
aa(lp40
F6811
aF113.614
aF0.75598500000000002
aF1
aF-0.118329
aF0.31989600000000001
aF-0.94003400000000004
aF-0.115687
aF0.33955999999999997
aF-0.93344300000000002
aF278.14699999999999
aF-365.51799999999997
aF1595.21
aF1.3306800000000001
aF0.22378500000000001
aF-1.44746
aF0.90573199999999998
aF1.47295
aa(lp41
F6812
aF113.63
aF0.76986100000000002
aF1
aF-0.11965199999999999
aF0.31911499999999998
aF-0.94013199999999997
aF-0.11523
aF0.33998099999999998
aF-0.93334600000000001
aF275.85599999999999
aF-362.61599999999999
aF1582.8399999999999
aF1.3336699999999999
aF0.230126
aF-1.46184
aF0.88118700000000005
aF1.4715499999999999
aa(lp42
F6813
aF113.64700000000001
aF0.78039700000000001
aF1
aF-0.118627
aF0.31695200000000001
aF-0.940994
aF-0.11304500000000001
aF0.33826299999999998
aF-0.93423699999999998
aF275.60399999999998
aF-363.18799999999999
aF1584.49
aF1.3347599999999999
aF0.23050799999999999
aF-1.46984
aF0.86101799999999995
aF1.4683299999999999
aa(lp43
F6814
aF113.664
aF0.81237099999999995
aF1
aF-0.11969
aF0.31677499999999997
aF-0.94091899999999995
aF-0.113022
aF0.339007
aF-0.93396999999999997
aF274.55799999999999
aF-363.04199999999997
aF1581.54
aF1.3345100000000001
aF0.23372200000000001
aF-1.4765900000000001
aF0.84342399999999995
aF1.46641
aa(lp44
F6815
aF113.68000000000001
aF0.80508299999999999
aF1
aF-0.119698
aF0.31677899999999998
aF-0.94091599999999997
aF-0.11312800000000001
aF0.339055
aF-0.93393999999999999
aF275.27499999999998
aF-365.14600000000002
aF1588
aF1.33094
aF0.234316
aF-1.47532
aF0.82577999999999996
aF1.46336
aa(lp45
F6816
aF113.697
aF0.80942000000000003
aF1
aF-0.121058
aF0.315695
aF-0.94110700000000003
aF-0.11309
aF0.33802599999999999
aF-0.93431799999999998
aF274.48099999999999
aF-366.19600000000003
aF1588.0799999999999
aF1.3320099999999999
aF0.24061099999999999
aF-1.48489
aF0.79096
aF1.4617599999999999
aa(lp46
F6817
aF113.714
aF0.79297200000000001
aF1
aF-0.120953
aF0.31722299999999998
aF-0.94060600000000005
aF-0.111943
aF0.33903699999999998
aF-0.93408899999999995
aF272.90300000000002
aF-366.47000000000003
aF1585.26
aF1.3351299999999999
aF0.24290400000000001
aF-1.4908399999999999
aF0.79240299999999997
aF1.4622999999999999
aa(lp47
F6818
aF113.73
aF0.79839000000000004
aF1
aF-0.121582
aF0.31740000000000002
aF-0.940465
aF-0.112635
aF0.34014100000000003
aF-0.93360399999999999
aF272.52199999999999
aF-367.95699999999999
aF1588.1700000000001
aF1.3307599999999999
aF0.247306
aF-1.49028
aF0.75803299999999996
aF1.4587600000000001
aa(lp48
F6819
aF113.747
aF0.80601199999999995
aF1
aF-0.120971
aF0.31842599999999999
aF-0.94019699999999995
aF-0.11140600000000001
aF0.34054000000000001
aF-0.93360699999999996
aF270.73899999999998
aF-367.50400000000002
aF1583.05
aF1.3323199999999999
aF0.247776
aF-1.49333
aF0.75942100000000001
aF1.4583699999999999
aa(lp49
F6820
aF113.764
aF0.81752000000000002
aF1
aF-0.120543
aF0.318409
aF-0.94025800000000004
aF-0.111023
aF0.34038200000000002
aF-0.93371000000000004
aF270.07100000000003
aF-368.017
aF1582.6900000000001
aF1.33301
aF0.244863
aF-1.4942
aF0.77356199999999997
aF1.45842
aa(lp50
F6821
aF113.78
aF0.81621900000000003
aF1
aF-0.119849
aF0.319936
aF-0.939828
aF-0.111071
aF0.34134599999999998
aF-0.93335199999999996
aF269.11399999999998
aF-367.55099999999999
aF1579.3900000000001
aF1.3331299999999999
aF0.23938400000000001
aF-1.48855
aF0.808504
aF1.4601999999999999
aa(lp51
F6822
aF113.797
aF0.81022700000000003
aF1
aF-0.11852699999999999
aF0.32151999999999997
aF-0.93945500000000004
aF-0.109775
aF0.34238600000000002
aF-0.93312399999999995
aF268.94299999999998
aF-367.435
aF1578.4100000000001
aF1.3306899999999999
aF0.23635600000000001
aF-1.4855
aF0.81418299999999999
aF1.4575899999999999
aa(lp52
F6823
aF113.81399999999999
aF0.81586899999999996
aF1
aF-0.117128
aF0.321411
aF-0.93966799999999995
aF-0.108641
aF0.34226099999999998
aF-0.93330299999999999
aF269.80200000000002
aF-367.94099999999997
aF1581.0599999999999
aF1.32575
aF0.227353
aF-1.4839100000000001
aF0.82627600000000001
aF1.4520999999999999
aa(lp53
F6824
aF113.83
aF0.82197900000000002
aF1
aF-0.11715
aF0.32361400000000001
aF-0.93890899999999999
aF-0.10854900000000001
aF0.344642
aF-0.93243699999999996
aF269.67700000000002
aF-366.13999999999999
aF1574.8699999999999
aF1.3209200000000001
aF0.21737000000000001
aF-1.48272
aF0.85534200000000005
aF1.44801
aa(lp54
F6825
aF113.84699999999999
aF0.82175900000000002
aF1
aF-0.117468
aF0.323162
aF-0.939025
aF-0.106915
aF0.34509800000000002
aF-0.93245699999999998
aF269.53300000000002
aF-364.476
aF1568.48
aF1.3063899999999999
aF0.208672
aF-1.4920199999999999
aF0.82257800000000003
aF1.43007
aa(lp55
F6826
aF113.864
aF0.81891700000000001
aF1
aF-0.119355
aF0.322986
aF-0.93884699999999999
aF-0.10542
aF0.34694999999999998
aF-0.93193999999999999
aF267.863
aF-361.00799999999998
aF1554.3399999999999
aF1.2849200000000001
aF0.19969400000000001
aF-1.5125
aF0.77389699999999995
aF1.40245
aa(lp56
F6827
aF113.88
aF0.78634000000000004
aF1
aF-0.123198
aF0.316278
aF-0.94063300000000005
aF-0.10953599999999999
aF0.347242
aF-0.93135599999999996
aF268.98899999999998
aF-360.37599999999998
aF1555.8800000000001
aF1.2591699999999999
aF0.199908
aF-1.5180100000000001
aF0.70131600000000005
aF1.37927
aa(lp57
F6828
aF113.89700000000001
aF0.79377399999999998
aF1
aF-0.124404
aF0.31108400000000003
aF-0.94220499999999996
aF-0.109512
aF0.345609
aF-0.93196599999999996
aF269.24299999999999
aF-359.346
aF1554.75
aF1.24343
aF0.20332600000000001
aF-1.52857
aF0.63941400000000004
aF1.3608
aa(lp58
F6829
aF113.914
aF0.81490099999999999
aF1
aF-0.125663
aF0.31608799999999998
aF-0.94037099999999996
aF-0.104321
aF0.34433399999999997
aF-0.933033
aF269.90600000000001
aF-359.54199999999997
aF1555.28
aF1.26535
aF0.21620700000000001
aF-1.5600700000000001
aF0.63691299999999995
aF1.3697999999999999
aa(lp59
F6830
aF113.93000000000001
aF0.82211400000000001
aF1
aF-0.127521
aF0.31508599999999998
aF-0.94045699999999999
aF-0.10466200000000001
aF0.34256500000000001
aF-0.93364599999999998
aF271.50700000000001
aF-360.89600000000002
aF1561.8699999999999
aF1.2681100000000001
aF0.22028700000000001
aF-1.57039
aF0.62325200000000003
aF1.37018
aa(lp60
F6831
aF113.947
aF0.81504600000000005
aF1
aF-0.12793599999999999
aF0.31525799999999998
aF-0.94034300000000004
aF-0.10510899999999999
aF0.34288800000000003
aF-0.933477
aF271.40699999999998
aF-360.58800000000002
aF1561.0999999999999
aF1.26725
aF0.22403999999999999
aF-1.5704400000000001
aF0.61016499999999996
aF1.3696699999999999
aa(lp61
F6832
aF113.964
aF0.82354000000000005
aF1
aF-0.12870899999999999
aF0.31542700000000001
aF-0.94018100000000004
aF-0.105854
aF0.34291100000000002
aF-0.93338500000000002
aF270.35399999999998
aF-359.209
aF1555.5799999999999
aF1.27095
aF0.22834399999999999
aF-1.5705499999999999
aF0.60537600000000003
aF1.3738699999999999
aa(lp62
F6833
aF113.98099999999999
aF0.82210300000000003
aF1
aF-0.12859300000000001
aF0.31532700000000002
aF-0.94023000000000001
aF-0.105685
aF0.34304699999999999
aF-0.93335400000000002
aF270.47899999999998
aF-359.58800000000002
aF1557.1700000000001
aF1.27058
aF0.230656
aF-1.5706100000000001
aF0.59589199999999998
aF1.37331
aa(lp63
F6834
aF113.997
aF0.82430499999999995
aF1
aF-0.129217
aF0.315303
aF-0.94015300000000002
aF-0.10620400000000001
aF0.34294999999999998
aF-0.93333100000000002
aF269.64499999999998
aF-359.22199999999998
aF1554.9300000000001
aF1.2712699999999999
aF0.23458200000000001
aF-1.5706800000000001
aF0.58411299999999999
aF1.3744400000000001
aa(lp64
F6835
aF114.014
aF0.82392699999999996
aF1
aF-0.130554
aF0.315081
aF-0.94004200000000004
aF-0.107597
aF0.34357300000000002
aF-0.93294200000000005
aF268.822
aF-358.73099999999999
aF1552.4200000000001
aF1.2715700000000001
aF0.24262900000000001
aF-1.5707899999999999
aF0.55848699999999996
aF1.37588
aa(lp65
F6836
aF114.03100000000001
aF0.81887799999999999
aF1
aF-0.13025200000000001
aF0.31456299999999998
aF-0.94025800000000004
aF-0.107256
aF0.34342
aF-0.93303700000000001
aF268.71199999999999
aF-359.11500000000001
aF1553.0899999999999
aF1.2721100000000001
aF0.24230499999999999
aF-1.57081
aF0.55905300000000002
aF1.3761099999999999
aa(lp66
F6837
aF114.047
aF0.82474599999999998
aF1
aF-0.130324
aF0.31456899999999999
aF-0.94024600000000003
aF-0.107331
aF0.34378700000000001
aF-0.932894
aF267.94
aF-359.11099999999999
aF1550.97
aF1.2719499999999999
aF0.244945
aF-1.5708599999999999
aF0.54934799999999995
aF1.37592
aa(lp67
F6838
aF114.06399999999999
aF0.82173200000000002
aF1
aF-0.130082
aF0.31528099999999998
aF-0.94004100000000002
aF-0.107129
aF0.34426899999999999
aF-0.93273899999999998
aF267.14600000000002
aF-358.75
aF1546.9200000000001
aF1.27302
aF0.244228
aF-1.57087
aF0.55655200000000005
aF1.3767400000000001
aa(lp68
F6839
aF114.081
aF0.81009399999999998
aF1
aF-0.129415
aF0.31514999999999999
aF-0.94017700000000004
aF-0.106881
aF0.345528
aF-0.93230199999999996
aF267.62
aF-360.358
aF1550.2
aF1.2712699999999999
aF0.24207200000000001
aF-1.5708200000000001
aF0.56228
aF1.37463
aa(lp69
F6840
aF114.09699999999999
aF0.820052
aF1
aF-0.12926799999999999
aF0.31573899999999999
aF-0.93999900000000003
aF-0.10657899999999999
aF0.345225
aF-0.93244899999999997
aF268.11399999999998
aF-361.73500000000001
aF1552.0999999999999
aF1.27224
aF0.23971899999999999
aF-1.5707800000000001
aF0.5736
aF1.3754200000000001
aa(lp70
F6841
aF114.114
aF0.83590200000000003
aF1
aF-0.12769
aF0.31555499999999997
aF-0.94027700000000003
aF-0.105064
aF0.34553800000000001
aF-0.93250500000000003
aF268.23399999999998
aF-362.697
aF1554.28
aF1.2711300000000001
aF0.23181499999999999
aF-1.57063
aF0.59667300000000001
aF1.3729800000000001
aa(lp71
F6842
aF114.131
aF0.82219200000000003
aF1
aF-0.127109
aF0.31642500000000001
aF-0.94006299999999998
aF-0.10462299999999999
aF0.34573300000000001
aF-0.93248200000000003
aF268.41000000000003
aF-363.22199999999998
aF1555.6800000000001
aF1.27217
aF0.227191
aF-1.57056
aF0.61614999999999998
aF1.3735900000000001
aa(lp72
F6843
aF114.14700000000001
aF0.81937899999999997
aF1
aF-0.126278
aF0.31606000000000001
aF-0.94029799999999997
aF-0.10381899999999999
aF0.34477600000000003
aF-0.93292600000000003
aF268.72800000000001
aF-363.577
aF1558.3399999999999
aF1.2726299999999999
aF0.22240299999999999
aF-1.5705
aF0.62946899999999995
aF1.3733599999999999
aa(lp73
F6844
aF114.164
aF0.82287999999999994
aF1
aF-0.12598799999999999
aF0.31639
aF-0.94022600000000001
aF-0.103599
aF0.34406799999999998
aF-0.93321200000000004
aF268.803
aF-363.25400000000002
aF1558.9200000000001
aF1.27345
aF0.220475
aF-1.5704800000000001
aF0.63650399999999996
aF1.3739600000000001
aa(lp74
F6845
aF114.181
aF0.81745800000000002
aF1
aF-0.126278
aF0.31559999999999999
aF-0.94045199999999995
aF-0.103772
aF0.343748
aF-0.933311
aF268.93700000000001
aF-362.64299999999997
aF1558.45
aF1.2694099999999999
aF0.220275
aF-1.5703800000000001
aF0.626332
aF1.37026
aa(lp75
F6846
aF114.197
aF0.80848399999999998
aF1
aF-0.12631400000000001
aF0.31632100000000002
aF-0.94020499999999996
aF-0.10377400000000001
aF0.34464699999999998
aF-0.932979
aF269.57100000000003
aF-363.01900000000001
aF1560.9100000000001
aF1.2686999999999999
aF0.21770300000000001
aF-1.5703100000000001
aF0.63629999999999998
aF1.36968
aa(lp76
F6847
aF114.214
aF0.82097900000000001
aF1
aF-0.126196
aF0.31681700000000002
aF-0.94005399999999995
aF-0.103784
aF0.34519699999999998
aF-0.93277399999999999
aF269.65300000000002
aF-362.14600000000002
aF1557.9100000000001
aF1.27071
aF0.21324799999999999
aF-1.5702700000000001
aF0.65770700000000004
aF1.3716999999999999
aa(lp77
F6848
aF114.23099999999999
aF0.81784000000000001
aF1
aF-0.12662399999999999
aF0.31675999999999999
aF-0.94001599999999996
aF-0.104113
aF0.34545399999999998
aF-0.932643
aF269.32999999999998
aF-361.38900000000001
aF1554.8699999999999
aF1.27129
aF0.21313199999999999
aF-1.5702700000000001
aF0.660829
aF1.3726499999999999
aa(lp78
F6849
aF114.247
aF0.82732399999999995
aF1
aF-0.126855
aF0.31703300000000001
aF-0.93989299999999998
aF-0.10449700000000001
aF0.34607300000000002
aF-0.93237000000000003
aF269.49200000000002
aF-361.06400000000002
aF1553.6600000000001
aF1.27186
aF0.212141
aF-1.57026
aF0.66786400000000001
aF1.37354
aa(lp79
F6850
aF114.264
aF0.83582199999999995
aF1
aF-0.12615000000000001
aF0.31725500000000001
aF-0.93991199999999997
aF-0.103601
aF0.34577200000000002
aF-0.93258200000000002
aF269.52800000000002
aF-361.08600000000001
aF1553.73
aF1.27206
aF0.212286
aF-1.5702799999999999
aF0.66577500000000001
aF1.3729199999999999
aa(lp80
F6851
aF114.28100000000001
aF0.836507
aF1
aF-0.125778
aF0.31716499999999997
aF-0.93999299999999997
aF-0.103306
aF0.34513899999999997
aF-0.93284900000000004
aF269.495
aF-360.97399999999999
aF1553.3199999999999
aF1.2723899999999999
aF0.211871
aF-1.57029
aF0.66586699999999999
aF1.3729199999999999
aa(lp81
F6852
aF114.298
aF0.82414600000000005
aF1
aF-0.125502
aF0.317166
aF-0.940029
aF-0.10294200000000001
aF0.344968
aF-0.932952
aF269.48399999999998
aF-360.95400000000001
aF1553.3299999999999
aF1.2729699999999999
aF0.211865
aF-1.5703100000000001
aF0.66614399999999996
aF1.3731599999999999
aa(lp82
F6853
aF114.31399999999999
aF0.83792599999999995
aF1
aF-0.125412
aF0.31677499999999997
aF-0.94017300000000004
aF-0.102964
aF0.344364
aF-0.93317300000000003
aF269.50299999999999
aF-360.81799999999998
aF1554.03
aF1.2742899999999999
aF0.212538
aF-1.5703400000000001
aF0.66520699999999999
aF1.37439
aa(lp83
F6854
aF114.331
aF0.83373799999999998
aF1
aF-0.12549099999999999
aF0.31690099999999999
aF-0.94011999999999996
aF-0.10315100000000001
aF0.34453800000000001
aF-0.93308800000000003
aF269.47300000000001
aF-360.82299999999998
aF1554.21
aF1.27457
aF0.213198
aF-1.57036
aF0.66445500000000002
aF1.37477
aa(lp84
F6855
aF114.348
aF0.83058200000000004
aF1
aF-0.12561900000000001
aF0.31599300000000002
aF-0.94040800000000002
aF-0.103298
aF0.34436699999999998
aF-0.93313500000000005
aF269.20299999999997
aF-360.89299999999997
aF1555.3800000000001
aF1.2726599999999999
aF0.216478
aF-1.57039
aF0.64725500000000002
aF1.37296
aa(lp85
F6856
aF114.364
aF0.82916400000000001
aF1
aF-0.126052
aF0.316492
aF-0.94018299999999999
aF-0.10340299999999999
aF0.34366400000000003
aF-0.93338200000000004
aF268.22899999999998
aF-360.495
aF1553.3299999999999
aF1.27603
aF0.219609
aF-1.5705
aF0.64452299999999996
aF1.3764000000000001
aa(lp86
F6857
aF114.381
aF0.83070299999999997
aF1
aF-0.125859
aF0.316195
aF-0.94030899999999995
aF-0.10334500000000001
aF0.344167
aF-0.93320400000000003
aF268.30000000000001
aF-361.18700000000001
aF1555.9300000000001
aF1.2728600000000001
aF0.222299
aF-1.5705100000000001
aF0.62775400000000003
aF1.3731199999999999
aa(lp87
F6858
aF114.398
aF0.82334700000000005
aF1
aF-0.12581500000000001
aF0.315216
aF-0.94064300000000001
aF-0.103341
aF0.34326699999999999
aF-0.933535
aF267.59300000000002
aF-361.35000000000002
aF1555.55
aF1.2717700000000001
aF0.22479099999999999
aF-1.5705499999999999
aF0.61285000000000001
aF1.3719399999999999
aa(lp88
F6859
aF114.414
aF0.82282100000000002
aF1
aF-0.12564800000000001
aF0.31521900000000003
aF-0.94066399999999994
aF-0.10305499999999999
aF0.34334900000000002
aF-0.93353699999999995
aF267.774
aF-362.36200000000002
aF1558.55
aF1.2699199999999999
aF0.22578100000000001
aF-1.5705499999999999
aF0.60479799999999995
aF1.3698999999999999
aa(lp89
F6860
aF114.431
aF0.81942199999999998
aF1
aF-0.12546499999999999
aF0.31487700000000002
aF-0.94080299999999994
aF-0.102799
aF0.34368100000000001
aF-0.93344300000000002
aF268.10399999999998
aF-363.072
aF1560.6700000000001
aF1.26895
aF0.22667799999999999
aF-1.57056
aF0.59917100000000001
aF1.3687400000000001
aa(lp90
F6861
aF114.44799999999999
aF0.81012799999999996
aF1
aF-0.124235
aF0.31574400000000002
aF-0.94067599999999996
aF-0.10144400000000001
aF0.34357100000000002
aF-0.93363200000000002
aF268.202
aF-364.00200000000001
aF1563.3299999999999
aF1.2701800000000001
aF0.223083
aF-1.5705199999999999
aF0.61249900000000002
aF1.3687100000000001
aa(lp91
F6862
aF114.464
aF0.81091599999999997
aF1
aF-0.123404
aF0.31587300000000001
aF-0.94074199999999997
aF-0.100685
aF0.34347699999999998
aF-0.93374800000000002
aF267.45600000000002
aF-363.37400000000002
aF1560.3599999999999
aF1.2698700000000001
aF0.220914
aF-1.5704899999999999
aF0.61732200000000004
aF1.36764
aa(lp92
F6863
aF114.48099999999999
aF0.77930600000000005
aF1
aF-0.12035800000000001
aF0.31291999999999998
aF-0.94212300000000004
aF-0.098241700000000001
aF0.34107900000000002
aF-0.93488700000000002
aF264.06900000000002
aF-360.64999999999998
aF1549.1400000000001
aF1.26511
aF0.21916099999999999
aF-1.5704800000000001
aF0.59652499999999997
aF1.3601399999999999
aa(lp93
F6984
aF116.5
aF0.41585899999999998
aF1
aF-0.063873299999999994
aF0.21599199999999999
aF-0.97430399999999995
aF-0.243593
aF0.22204099999999999
aF-0.94411900000000004
aF290.916
aF-335.048
aF1628.1900000000001
aF-0.044133600000000002
aF0.024112499999999999
aF-0.058971700000000002
aF-0.172237
aF0.199799
aa(lp94
F7129
aF118.919
aF0.28101100000000001
aF1
aF-0.082441399999999998
aF0.14185
aF-0.98644900000000002
aF-0.25295099999999998
aF0.15761500000000001
aF-0.95455400000000001
aF295.976
aF-349.59199999999998
aF1684.71
aF-0.38000899999999999
aF0.143766
aF-0.039884500000000003
aF-0.33275500000000002
aF-0.202679
aa.